; ModuleID = 'bench/linux/original/numa_64.ll'
source_filename = "bench/linux/original/numa_64.ll"
target datalayout = "e-m:e-p270:32:32-p271:32:32-p272:64:64-i64:64-i128:128-f80:128-n8:16:32:64-S128"
target triple = "x86_64-unknown-linux-gnu"

; Function Attrs: cold fn_ret_thunk_extern nounwind null_pointer_is_valid optsize
define dso_local void @initmem_init() local_unnamed_addr #0 section ".init.text" align 16 {
  tail call void @x86_numa_init() #2
  ret void
}

; Function Attrs: cold null_pointer_is_valid
declare dso_local void @x86_numa_init() local_unnamed_addr #1 section ".init.text"


!llvm.module.flags = !{!0, !1, !2, !3, !4}

!0 = !{i32 1, !"wchar_size", i32 2}
!1 = !{i32 8, !"cf-protection-branch", i32 1}
!2 = !{i32 4, !"function_return_thunk_extern", i32 1}
!3 = !{i32 4, !"indirect_branch_cs_prefix", i32 1}
!4 = !{i32 4, !"SkipRaxSetup", i32 1}
